/*
 * Intel ACPI Component Architecture
 * AML/ASL+ Disassembler version 20210930 (32-bit version)
 * Copyright (c) 2000 - 2021 Intel Corporation
 * 
 * Disassembly of C:/Users/Rog/Xiasl/ACPI Tables/cdit.dat, Sat Sep 27 14:26:58 2025
 *
 * ACPI Data Table [CDIT]
 *
 * Format: [HexOffset DecimalOffset ByteLength]  FieldName : FieldValue (in hex)
 */

[000h 0000   4]                    Signature : "CDIT"    
[004h 0004   4]                 Table Length : 00000029
[008h 0008   1]                     Revision : 01
[009h 0009   1]                     Checksum : E7
[00Ah 0010   6]                       Oem ID : "AMD"
[010h 0016   8]                 Oem Table ID : "AmdTable"
[018h 0024   4]                 Oem Revision : 00000001
[01Ch 0028   4]              Asl Compiler ID : "AMD "
[020h 0032   4]        Asl Compiler Revision : 00000001


**** Unknown ACPI table signature [CDIT]


Raw Table Data: Length 41 (0x29)

    0000: 43 44 49 54 29 00 00 00 01 E7 41 4D 44 00 00 00  // CDIT).....AMD...
    0010: 41 6D 64 54 61 62 6C 65 01 00 00 00 41 4D 44 20  // AmdTable....AMD 
    0020: 01 00 00 00 01 00 00 00 0A                       // .........
